target datalayout = "e-m:e-p270:32:32-p271:32:32-p272:64:64-i64:64-i128:128-f80:128-n8:16:32:64-S128"
target triple = "x86_64-pc-linux-gnu"

%struct.RelFileLocator = type { i32, i32, i32 }
%struct.xl_smgr_create = type { %struct.RelFileLocator, i32 }
%struct.xl_smgr_truncate = type { i32, %struct.RelFileLocator, i32 }
%struct.XLogReaderState = type { %struct.XLogReaderRoutine, i64, ptr, i64, i64, i64, i64, i64, i64, i64, i64, ptr, ptr, i64, i8, ptr, ptr, ptr, ptr, ptr, i32, %struct.WALSegmentContext, %struct.WALOpenSegment, i32, i64, i32, i64, i32, i64, i32, ptr, i32, ptr, i8, i8 }
%struct.XLogReaderRoutine = type { ptr, ptr, ptr }
%struct.WALSegmentContext = type { [1024 x i8], i32 }
%struct.WALOpenSegment = type { i32, i64, i32 }
%struct.DecodedXLogRecord = type { i64, i8, ptr, i64, i64, %struct.XLogRecord, i16, i32, ptr, i32, i32, [0 x %struct.DecodedBkpBlock] }
%struct.XLogRecord = type { i32, i32, i64, i8, i8, i32 }
%struct.DecodedBkpBlock = type { i8, %struct.RelFileLocator, i32, i32, i32, i8, i8, i8, ptr, i16, i16, i16, i8, i8, ptr, i16, i16 }

@.str.1 = private unnamed_addr constant [10 x i8] c"storage.c\00", align 1
@CritSectionCount = external global i32, align 4
@.str.4 = private unnamed_addr constant [30 x i8] c"smgr_redo: unknown op code %u\00", align 1
@__func__.smgr_redo = private unnamed_addr constant [10 x i8] c"smgr_redo\00", align 1

; Function Attrs: inlinehint nounwind uwtable
define internal zeroext i1 @BlockNumberIsValid(i32 noundef %0) #5 {
  %2 = alloca i32, align 4
  store i32 %0, ptr %2, align 4
  %3 = load i32, ptr %2, align 4
  %4 = icmp ne i32 %3, -1
  ret i1 %4
}

; Function Attrs: nounwind uwtable
define dso_local void @smgr_redo(ptr noundef %0) #0 {
  %2 = alloca ptr, align 8
  %3 = alloca i64, align 8
  %4 = alloca i8, align 1
  %5 = alloca ptr, align 8
  %6 = alloca ptr, align 8
  %7 = alloca { i64, i32 }, align 4
  %8 = alloca ptr, align 8
  %9 = alloca ptr, align 8
  %10 = alloca ptr, align 8
  %11 = alloca [3 x i32], align 4
  %12 = alloca [3 x i32], align 4
  %13 = alloca [3 x i32], align 4
  %14 = alloca i32, align 4
  %15 = alloca i8, align 1
  %16 = alloca { i64, i32 }, align 4
  %17 = alloca { i64, i32 }, align 4
  %18 = alloca { i64, i32 }, align 4
  store ptr %0, ptr %2, align 8
  call void @llvm.lifetime.start.p0(i64 8, ptr %3) #8
  %19 = load ptr, ptr %2, align 8
  %20 = getelementptr inbounds nuw %struct.XLogReaderState, ptr %19, i32 0, i32 4
  %21 = load i64, ptr %20, align 8
  store i64 %21, ptr %3, align 8
  call void @llvm.lifetime.start.p0(i64 1, ptr %4) #8
  %22 = load ptr, ptr %2, align 8
  %23 = getelementptr inbounds nuw %struct.XLogReaderState, ptr %22, i32 0, i32 11
  %24 = load ptr, ptr %23, align 8
  %25 = getelementptr inbounds nuw %struct.DecodedXLogRecord, ptr %24, i32 0, i32 5
  %26 = getelementptr inbounds nuw %struct.XLogRecord, ptr %25, i32 0, i32 3
  %27 = load i8, ptr %26, align 8
  %28 = zext i8 %27 to i32
  %29 = and i32 %28, -16
  %30 = trunc i32 %29 to i8
  store i8 %30, ptr %4, align 1
  %31 = load i8, ptr %4, align 1
  %32 = zext i8 %31 to i32
  %33 = icmp eq i32 %32, 16
  br i1 %33, label %34, label %51

34:                                               ; preds = %1
  call void @llvm.lifetime.start.p0(i64 8, ptr %5) #8
  %35 = load ptr, ptr %2, align 8
  %36 = getelementptr inbounds nuw %struct.XLogReaderState, ptr %35, i32 0, i32 11
  %37 = load ptr, ptr %36, align 8
  %38 = getelementptr inbounds nuw %struct.DecodedXLogRecord, ptr %37, i32 0, i32 8
  %39 = load ptr, ptr %38, align 8
  store ptr %39, ptr %5, align 8
  call void @llvm.lifetime.start.p0(i64 8, ptr %6) #8
  %40 = load ptr, ptr %5, align 8
  %41 = getelementptr inbounds nuw %struct.xl_smgr_create, ptr %40, i32 0, i32 0
  call void @llvm.memcpy.p0.p0.i64(ptr align 4 %7, ptr align 4 %41, i64 12, i1 false)
  %42 = getelementptr inbounds nuw { i64, i32 }, ptr %7, i32 0, i32 0
  %43 = load i64, ptr %42, align 4
  %44 = getelementptr inbounds nuw { i64, i32 }, ptr %7, i32 0, i32 1
  %45 = load i32, ptr %44, align 4
  %46 = call ptr @smgropen(i64 %43, i32 %45, i32 noundef -1)
  store ptr %46, ptr %6, align 8
  %47 = load ptr, ptr %6, align 8
  %48 = load ptr, ptr %5, align 8
  %49 = getelementptr inbounds nuw %struct.xl_smgr_create, ptr %48, i32 0, i32 1
  %50 = load i32, ptr %49, align 4
  call void @smgrcreate(ptr noundef %47, i32 noundef %50, i1 noundef zeroext true)
  call void @llvm.lifetime.end.p0(i64 8, ptr %6) #8
  call void @llvm.lifetime.end.p0(i64 8, ptr %5) #8
  br label %218

51:                                               ; preds = %1
  %52 = load i8, ptr %4, align 1
  %53 = zext i8 %52 to i32
  %54 = icmp eq i32 %53, 32
  br i1 %54, label %55, label %204

55:                                               ; preds = %51
  call void @llvm.lifetime.start.p0(i64 8, ptr %8) #8
  %56 = load ptr, ptr %2, align 8
  %57 = getelementptr inbounds nuw %struct.XLogReaderState, ptr %56, i32 0, i32 11
  %58 = load ptr, ptr %57, align 8
  %59 = getelementptr inbounds nuw %struct.DecodedXLogRecord, ptr %58, i32 0, i32 8
  %60 = load ptr, ptr %59, align 8
  store ptr %60, ptr %8, align 8
  call void @llvm.lifetime.start.p0(i64 8, ptr %9) #8
  call void @llvm.lifetime.start.p0(i64 8, ptr %10) #8
  call void @llvm.lifetime.start.p0(i64 12, ptr %11) #8
  call void @llvm.lifetime.start.p0(i64 12, ptr %12) #8
  call void @llvm.lifetime.start.p0(i64 12, ptr %13) #8
  call void @llvm.lifetime.start.p0(i64 4, ptr %14) #8
  store i32 0, ptr %14, align 4
  call void @llvm.lifetime.start.p0(i64 1, ptr %15) #8
  store i8 0, ptr %15, align 1
  %61 = load ptr, ptr %8, align 8
  %62 = getelementptr inbounds nuw %struct.xl_smgr_truncate, ptr %61, i32 0, i32 1
  call void @llvm.memcpy.p0.p0.i64(ptr align 4 %16, ptr align 4 %62, i64 12, i1 false)
  %63 = getelementptr inbounds nuw { i64, i32 }, ptr %16, i32 0, i32 0
  %64 = load i64, ptr %63, align 4
  %65 = getelementptr inbounds nuw { i64, i32 }, ptr %16, i32 0, i32 1
  %66 = load i32, ptr %65, align 4
  %67 = call ptr @smgropen(i64 %64, i32 %66, i32 noundef -1)
  store ptr %67, ptr %9, align 8
  %68 = load ptr, ptr %9, align 8
  call void @smgrcreate(ptr noundef %68, i32 noundef 0, i1 noundef zeroext true)
  %69 = load i64, ptr %3, align 8
  call void @XLogFlush(i64 noundef %69)
  %70 = load ptr, ptr %8, align 8
  %71 = getelementptr inbounds nuw %struct.xl_smgr_truncate, ptr %70, i32 0, i32 2
  %72 = load i32, ptr %71, align 4
  %73 = and i32 %72, 1
  %74 = icmp ne i32 %73, 0
  br i1 %74, label %75, label %101

75:                                               ; preds = %55
  %76 = load i32, ptr %14, align 4
  %77 = sext i32 %76 to i64
  %78 = getelementptr inbounds [3 x i32], ptr %11, i64 0, i64 %77
  store i32 0, ptr %78, align 4
  %79 = load ptr, ptr %9, align 8
  %80 = call i32 @smgrnblocks(ptr noundef %79, i32 noundef 0)
  %81 = load i32, ptr %14, align 4
  %82 = sext i32 %81 to i64
  %83 = getelementptr inbounds [3 x i32], ptr %13, i64 0, i64 %82
  store i32 %80, ptr %83, align 4
  %84 = load ptr, ptr %8, align 8
  %85 = getelementptr inbounds nuw %struct.xl_smgr_truncate, ptr %84, i32 0, i32 0
  %86 = load i32, ptr %85, align 4
  %87 = load i32, ptr %14, align 4
  %88 = sext i32 %87 to i64
  %89 = getelementptr inbounds [3 x i32], ptr %12, i64 0, i64 %88
  store i32 %86, ptr %89, align 4
  %90 = load i32, ptr %14, align 4
  %91 = add i32 %90, 1
  store i32 %91, ptr %14, align 4
  %92 = load ptr, ptr %8, align 8
  %93 = getelementptr inbounds nuw %struct.xl_smgr_truncate, ptr %92, i32 0, i32 1
  %94 = load ptr, ptr %8, align 8
  %95 = getelementptr inbounds nuw %struct.xl_smgr_truncate, ptr %94, i32 0, i32 0
  %96 = load i32, ptr %95, align 4
  call void @llvm.memcpy.p0.p0.i64(ptr align 4 %17, ptr align 4 %93, i64 12, i1 false)
  %97 = getelementptr inbounds nuw { i64, i32 }, ptr %17, i32 0, i32 0
  %98 = load i64, ptr %97, align 4
  %99 = getelementptr inbounds nuw { i64, i32 }, ptr %17, i32 0, i32 1
  %100 = load i32, ptr %99, align 4
  call void @XLogTruncateRelation(i64 %98, i32 %100, i32 noundef 0, i32 noundef %96)
  br label %101

101:                                              ; preds = %75, %55
  %102 = load ptr, ptr %8, align 8
  %103 = getelementptr inbounds nuw %struct.xl_smgr_truncate, ptr %102, i32 0, i32 1
  call void @llvm.memcpy.p0.p0.i64(ptr align 4 %18, ptr align 4 %103, i64 12, i1 false)
  %104 = getelementptr inbounds nuw { i64, i32 }, ptr %18, i32 0, i32 0
  %105 = load i64, ptr %104, align 4
  %106 = getelementptr inbounds nuw { i64, i32 }, ptr %18, i32 0, i32 1
  %107 = load i32, ptr %106, align 4
  %108 = call ptr @CreateFakeRelcacheEntry(i64 %105, i32 %107)
  store ptr %108, ptr %10, align 8
  %109 = load ptr, ptr %8, align 8
  %110 = getelementptr inbounds nuw %struct.xl_smgr_truncate, ptr %109, i32 0, i32 2
  %111 = load i32, ptr %110, align 4
  %112 = and i32 %111, 4
  %113 = icmp ne i32 %112, 0
  br i1 %113, label %114, label %143

114:                                              ; preds = %101
  %115 = load ptr, ptr %9, align 8
  %116 = call zeroext i1 @smgrexists(ptr noundef %115, i32 noundef 1)
  br i1 %116, label %117, label %143

117:                                              ; preds = %114
  %118 = load ptr, ptr %10, align 8
  %119 = load ptr, ptr %8, align 8
  %120 = getelementptr inbounds nuw %struct.xl_smgr_truncate, ptr %119, i32 0, i32 0
  %121 = load i32, ptr %120, align 4
  %122 = call i32 @FreeSpaceMapPrepareTruncateRel(ptr noundef %118, i32 noundef %121)
  %123 = load i32, ptr %14, align 4
  %124 = sext i32 %123 to i64
  %125 = getelementptr inbounds [3 x i32], ptr %12, i64 0, i64 %124
  store i32 %122, ptr %125, align 4
  %126 = load i32, ptr %14, align 4
  %127 = sext i32 %126 to i64
  %128 = getelementptr inbounds [3 x i32], ptr %12, i64 0, i64 %127
  %129 = load i32, ptr %128, align 4
  %130 = call zeroext i1 @BlockNumberIsValid(i32 noundef %129)
  br i1 %130, label %131, label %142

131:                                              ; preds = %117
  %132 = load i32, ptr %14, align 4
  %133 = sext i32 %132 to i64
  %134 = getelementptr inbounds [3 x i32], ptr %11, i64 0, i64 %133
  store i32 1, ptr %134, align 4
  %135 = load ptr, ptr %9, align 8
  %136 = call i32 @smgrnblocks(ptr noundef %135, i32 noundef 1)
  %137 = load i32, ptr %14, align 4
  %138 = sext i32 %137 to i64
  %139 = getelementptr inbounds [3 x i32], ptr %13, i64 0, i64 %138
  store i32 %136, ptr %139, align 4
  %140 = load i32, ptr %14, align 4
  %141 = add i32 %140, 1
  store i32 %141, ptr %14, align 4
  store i8 1, ptr %15, align 1
  br label %142

142:                                              ; preds = %131, %117
  br label %143

143:                                              ; preds = %142, %114, %101
  %144 = load ptr, ptr %8, align 8
  %145 = getelementptr inbounds nuw %struct.xl_smgr_truncate, ptr %144, i32 0, i32 2
  %146 = load i32, ptr %145, align 4
  %147 = and i32 %146, 2
  %148 = icmp ne i32 %147, 0
  br i1 %148, label %149, label %178

149:                                              ; preds = %143
  %150 = load ptr, ptr %9, align 8
  %151 = call zeroext i1 @smgrexists(ptr noundef %150, i32 noundef 2)
  br i1 %151, label %152, label %178

152:                                              ; preds = %149
  %153 = load ptr, ptr %10, align 8
  %154 = load ptr, ptr %8, align 8
  %155 = getelementptr inbounds nuw %struct.xl_smgr_truncate, ptr %154, i32 0, i32 0
  %156 = load i32, ptr %155, align 4
  %157 = call i32 @visibilitymap_prepare_truncate(ptr noundef %153, i32 noundef %156)
  %158 = load i32, ptr %14, align 4
  %159 = sext i32 %158 to i64
  %160 = getelementptr inbounds [3 x i32], ptr %12, i64 0, i64 %159
  store i32 %157, ptr %160, align 4
  %161 = load i32, ptr %14, align 4
  %162 = sext i32 %161 to i64
  %163 = getelementptr inbounds [3 x i32], ptr %12, i64 0, i64 %162
  %164 = load i32, ptr %163, align 4
  %165 = call zeroext i1 @BlockNumberIsValid(i32 noundef %164)
  br i1 %165, label %166, label %177

166:                                              ; preds = %152
  %167 = load i32, ptr %14, align 4
  %168 = sext i32 %167 to i64
  %169 = getelementptr inbounds [3 x i32], ptr %11, i64 0, i64 %168
  store i32 2, ptr %169, align 4
  %170 = load ptr, ptr %9, align 8
  %171 = call i32 @smgrnblocks(ptr noundef %170, i32 noundef 2)
  %172 = load i32, ptr %14, align 4
  %173 = sext i32 %172 to i64
  %174 = getelementptr inbounds [3 x i32], ptr %13, i64 0, i64 %173
  store i32 %171, ptr %174, align 4
  %175 = load i32, ptr %14, align 4
  %176 = add i32 %175, 1
  store i32 %176, ptr %14, align 4
  br label %177

177:                                              ; preds = %166, %152
  br label %178

178:                                              ; preds = %177, %149, %143
  %179 = load i32, ptr %14, align 4
  %180 = icmp sgt i32 %179, 0
  br i1 %180, label %181, label %194

181:                                              ; preds = %178
  %182 = load volatile i32, ptr @CritSectionCount, align 4
  %183 = add i32 %182, 1
  store volatile i32 %183, ptr @CritSectionCount, align 4
  %184 = load ptr, ptr %9, align 8
  %185 = getelementptr inbounds [3 x i32], ptr %11, i64 0, i64 0
  %186 = load i32, ptr %14, align 4
  %187 = getelementptr inbounds [3 x i32], ptr %13, i64 0, i64 0
  %188 = getelementptr inbounds [3 x i32], ptr %12, i64 0, i64 0
  call void @smgrtruncate(ptr noundef %184, ptr noundef %185, i32 noundef %186, ptr noundef %187, ptr noundef %188)
  br label %189

189:                                              ; preds = %181
  %190 = load volatile i32, ptr @CritSectionCount, align 4
  %191 = add i32 %190, -1
  store volatile i32 %191, ptr @CritSectionCount, align 4
  br label %192

192:                                              ; preds = %189
  br label %193

193:                                              ; preds = %192
  br label %194

194:                                              ; preds = %193, %178
  %195 = load i8, ptr %15, align 1, !range !4, !noundef !5
  %196 = trunc i8 %195 to i1
  br i1 %196, label %197, label %202

197:                                              ; preds = %194
  %198 = load ptr, ptr %10, align 8
  %199 = load ptr, ptr %8, align 8
  %200 = getelementptr inbounds nuw %struct.xl_smgr_truncate, ptr %199, i32 0, i32 0
  %201 = load i32, ptr %200, align 4
  call void @FreeSpaceMapVacuumRange(ptr noundef %198, i32 noundef %201, i32 noundef -1)
  br label %202

202:                                              ; preds = %197, %194
  %203 = load ptr, ptr %10, align 8
  call void @FreeFakeRelcacheEntry(ptr noundef %203)
  call void @llvm.lifetime.end.p0(i64 1, ptr %15) #8
  call void @llvm.lifetime.end.p0(i64 4, ptr %14) #8
  call void @llvm.lifetime.end.p0(i64 12, ptr %13) #8
  call void @llvm.lifetime.end.p0(i64 12, ptr %12) #8
  call void @llvm.lifetime.end.p0(i64 12, ptr %11) #8
  call void @llvm.lifetime.end.p0(i64 8, ptr %10) #8
  call void @llvm.lifetime.end.p0(i64 8, ptr %9) #8
  call void @llvm.lifetime.end.p0(i64 8, ptr %8) #8
  br label %217

204:                                              ; preds = %51
  br label %205

205:                                              ; preds = %204
  br i1 true, label %206, label %208

206:                                              ; preds = %205
  %207 = call zeroext i1 @errstart_cold(i32 noundef 23, ptr noundef null) #9
  br i1 %207, label %210, label %214

208:                                              ; preds = %205
  %209 = call zeroext i1 @errstart(i32 noundef 23, ptr noundef null)
  br i1 %209, label %210, label %214

210:                                              ; preds = %208, %206
  %211 = load i8, ptr %4, align 1
  %212 = zext i8 %211 to i32
  %213 = call i32 (ptr, ...) @errmsg_internal(ptr noundef @.str.4, i32 noundef %212)
  call void @errfinish(ptr noundef @.str.1, i32 noundef 1078, ptr noundef @__func__.smgr_redo)
  br label %214

214:                                              ; preds = %210, %208, %206
  unreachable

215:                                              ; No predecessors!
  br label %216

216:                                              ; preds = %215
  br label %217

217:                                              ; preds = %216, %202
  br label %218

218:                                              ; preds = %217, %34
  call void @llvm.lifetime.end.p0(i64 1, ptr %4) #8
  call void @llvm.lifetime.end.p0(i64 8, ptr %3) #8
  ret void
}