; Function Attrs: nounwind uwtable
define dso_local void @smgr_redo(ptr noundef readonly captures(none) %0) local_unnamed_addr #0 {
  %2 = alloca [3 x i32], align 4
  %3 = alloca [3 x i32], align 4
  %4 = alloca [3 x i32], align 4
  %5 = getelementptr inbounds nuw i8, ptr %0, i64 104
  %6 = load ptr, ptr %5, align 8
  %7 = getelementptr inbounds nuw i8, ptr %6, i64 56
  %8 = load i8, ptr %7, align 8
  %9 = and i8 %8, -16
  switch i8 %9, label %69 [
    i8 16, label %10
    i8 32, label %16
  ]

10:                                               ; preds = %1
  %11 = getelementptr inbounds nuw i8, ptr %6, i64 72
  %12 = load ptr, ptr %11, align 8
  %.sroa.042.0.copyload = load i64, ptr %12, align 4
  %.sroa.243.0..sroa_idx = getelementptr inbounds nuw i8, ptr %12, i64 8
  %.sroa.243.0.copyload = load i32, ptr %.sroa.243.0..sroa_idx, align 4
  %13 = tail call ptr @smgropen(i64 %.sroa.042.0.copyload, i32 %.sroa.243.0.copyload, i32 noundef -1) #8
  %14 = getelementptr inbounds nuw i8, ptr %12, i64 12
  %15 = load i32, ptr %14, align 4
  tail call void @smgrcreate(ptr noundef %13, i32 noundef %15, i1 noundef zeroext true) #8
  br label %73

16:                                               ; preds = %1
  %17 = getelementptr inbounds nuw i8, ptr %0, i64 48
  %18 = load i64, ptr %17, align 8
  %19 = getelementptr inbounds nuw i8, ptr %6, i64 72
  %20 = load ptr, ptr %19, align 8
  call void @llvm.lifetime.start.p0(i64 12, ptr nonnull %2) #8
  call void @llvm.lifetime.start.p0(i64 12, ptr nonnull %3) #8
  call void @llvm.lifetime.start.p0(i64 12, ptr nonnull %4) #8
  %21 = getelementptr inbounds nuw i8, ptr %20, i64 4
  %.sroa.03.0.copyload = load i64, ptr %21, align 4
  %.sroa.24.0..sroa_idx = getelementptr inbounds nuw i8, ptr %20, i64 12
  %.sroa.24.0.copyload = load i32, ptr %.sroa.24.0..sroa_idx, align 4
  %22 = tail call ptr @smgropen(i64 %.sroa.03.0.copyload, i32 %.sroa.24.0.copyload, i32 noundef -1) #8
  tail call void @smgrcreate(ptr noundef %22, i32 noundef 0, i1 noundef zeroext true) #8
  tail call void @XLogFlush(i64 noundef %18) #8
  %23 = getelementptr inbounds nuw i8, ptr %20, i64 16
  %24 = load i32, ptr %23, align 4
  %25 = and i32 %24, 1
  %.not = icmp eq i32 %25, 0
  br i1 %.not, label %29, label %26

26:                                               ; preds = %16
  store i32 0, ptr %2, align 4
  %27 = tail call i32 @smgrnblocks(ptr noundef %22, i32 noundef 0) #8
  store i32 %27, ptr %4, align 4
  %28 = load i32, ptr %20, align 4
  store i32 %28, ptr %3, align 4
  %.sroa.01.0.copyload = load i64, ptr %21, align 4
  %.sroa.22.0.copyload = load i32, ptr %.sroa.24.0..sroa_idx, align 4
  tail call void @XLogTruncateRelation(i64 %.sroa.01.0.copyload, i32 %.sroa.22.0.copyload, i32 noundef 0, i32 noundef %28) #8
  br label %29

29:                                               ; preds = %26, %16
  %.0 = phi i32 [ 1, %26 ], [ 0, %16 ]
  %.sroa.0.0.copyload = load i64, ptr %21, align 4
  %.sroa.2.0.copyload = load i32, ptr %.sroa.24.0..sroa_idx, align 4
  %30 = tail call ptr @CreateFakeRelcacheEntry(i64 %.sroa.0.0.copyload, i32 %.sroa.2.0.copyload) #8
  %31 = load i32, ptr %23, align 4
  %32 = and i32 %31, 4
  %.not57 = icmp eq i32 %32, 0
  br i1 %.not57, label %45, label %33

33:                                               ; preds = %29
  %34 = tail call zeroext i1 @smgrexists(ptr noundef %22, i32 noundef 1) #8
  br i1 %34, label %35, label %45

35:                                               ; preds = %33
  %36 = load i32, ptr %20, align 4
  %37 = tail call i32 @FreeSpaceMapPrepareTruncateRel(ptr noundef %30, i32 noundef %36) #8
  %38 = zext nneg i32 %.0 to i64
  %39 = getelementptr inbounds nuw [3 x i32], ptr %3, i64 0, i64 %38
  store i32 %37, ptr %39, align 4
  %.not61 = icmp eq i32 %37, -1
  br i1 %.not61, label %45, label %40

40:                                               ; preds = %35
  %41 = getelementptr inbounds nuw [3 x i32], ptr %2, i64 0, i64 %38
  store i32 1, ptr %41, align 4
  %42 = tail call i32 @smgrnblocks(ptr noundef %22, i32 noundef 1) #8
  %43 = getelementptr inbounds nuw [3 x i32], ptr %4, i64 0, i64 %38
  store i32 %42, ptr %43, align 4
  %44 = add nuw nsw i32 %.0, 1
  br label %45

45:                                               ; preds = %35, %40, %33, %29
  %.055 = phi i1 [ true, %40 ], [ false, %35 ], [ false, %33 ], [ false, %29 ]
  %.1 = phi i32 [ %44, %40 ], [ %.0, %35 ], [ %.0, %33 ], [ %.0, %29 ]
  %46 = load i32, ptr %23, align 4
  %47 = and i32 %46, 2
  %.not58 = icmp eq i32 %47, 0
  br i1 %.not58, label %59, label %48

48:                                               ; preds = %45
  %49 = tail call zeroext i1 @smgrexists(ptr noundef %22, i32 noundef 2) #8
  br i1 %49, label %50, label %59

50:                                               ; preds = %48
  %51 = load i32, ptr %20, align 4
  %52 = tail call i32 @visibilitymap_prepare_truncate(ptr noundef %30, i32 noundef %51) #8
  %53 = zext nneg i32 %.1 to i64
  %54 = getelementptr inbounds nuw [3 x i32], ptr %3, i64 0, i64 %53
  store i32 %52, ptr %54, align 4
  %.not62 = icmp eq i32 %52, -1
  br i1 %.not62, label %59, label %.thread

.thread:                                          ; preds = %50
  %55 = getelementptr inbounds nuw [3 x i32], ptr %2, i64 0, i64 %53
  store i32 2, ptr %55, align 4
  %56 = tail call i32 @smgrnblocks(ptr noundef %22, i32 noundef 2) #8
  %57 = getelementptr inbounds nuw [3 x i32], ptr %4, i64 0, i64 %53
  store i32 %56, ptr %57, align 4
  %58 = add nuw nsw i32 %.1, 1
  br label %60

59:                                               ; preds = %50, %48, %45
  %.not63 = icmp eq i32 %.1, 0
  br i1 %.not63, label %65, label %60

60:                                               ; preds = %.thread, %59
  %.260 = phi i32 [ %58, %.thread ], [ %.1, %59 ]
  %61 = load volatile i32, ptr @CritSectionCount, align 4
  %62 = add i32 %61, 1
  store volatile i32 %62, ptr @CritSectionCount, align 4
  call void @smgrtruncate(ptr noundef %22, ptr noundef nonnull %2, i32 noundef %.260, ptr noundef nonnull %4, ptr noundef nonnull %3) #8
  %63 = load volatile i32, ptr @CritSectionCount, align 4
  %64 = add i32 %63, -1
  store volatile i32 %64, ptr @CritSectionCount, align 4
  br label %65

65:                                               ; preds = %60, %59
  br i1 %.055, label %66, label %68

66:                                               ; preds = %65
  %67 = load i32, ptr %20, align 4
  call void @FreeSpaceMapVacuumRange(ptr noundef %30, i32 noundef %67, i32 noundef -1) #8
  br label %68

68:                                               ; preds = %66, %65
  call void @FreeFakeRelcacheEntry(ptr noundef %30) #8
  call void @llvm.lifetime.end.p0(i64 12, ptr nonnull %4) #8
  call void @llvm.lifetime.end.p0(i64 12, ptr nonnull %3) #8
  call void @llvm.lifetime.end.p0(i64 12, ptr nonnull %2) #8
  br label %73

69:                                               ; preds = %1
  %70 = zext i8 %9 to i32
  %71 = tail call zeroext i1 @errstart_cold(i32 noundef 23, ptr noundef null) #7
  tail call void @llvm.assume(i1 %71)
  %72 = tail call i32 (ptr, ...) @errmsg_internal(ptr noundef nonnull @.str.4, i32 noundef %70) #8
  tail call void @errfinish(ptr noundef nonnull @.str.1, i32 noundef 1078, ptr noundef nonnull @__func__.smgr_redo) #8
  unreachable

73:                                               ; preds = %68, %10
  ret void
}